target datalayout = "e-m:e-p270:32:32-p271:32:32-p272:64:64-i64:64-i128:128-f80:128-n8:16:32:64-S128"
target triple = "x86_64-unknown-linux-gnu"

%struct.QTailQLink = type { ptr, ptr }
%struct.vhost_vdpa = type { i32, i32, i32, i8, i32, %struct.MemoryListener, %struct.vhost_vdpa_iova_range, i64, i8, i8, i8, ptr, ptr, ptr, ptr, ptr, ptr, [1024 x %struct.VhostVDPAHostNotifier], %struct.anon, %struct.IOMMUNotifier }
%struct.MemoryListener = type { ptr, ptr, ptr, ptr, ptr, ptr, ptr, ptr, ptr, ptr, ptr, ptr, ptr, ptr, ptr, ptr, ptr, i32, ptr, ptr, %union.anon.1, %union.anon.2 }
%union.anon.1 = type { %struct.QTailQLink }
%union.anon.2 = type { %struct.QTailQLink }
%struct.vhost_vdpa_iova_range = type { i64, i64 }
%struct.VhostVDPAHostNotifier = type { %struct.MemoryRegion, ptr }
%struct.MemoryRegion = type { %struct.Object, i8, i8, i8, i8, i8, i8, i8, i8, i8, i8, ptr, ptr, ptr, ptr, ptr, ptr, i32, i128, i64, ptr, i64, i8, i8, i8, i8, i8, ptr, i64, i32, %union.anon.3, %union.anon.4, %union.anon.5, ptr, i32, ptr, ptr, i8 }
%struct.Object = type { ptr, ptr, ptr, i32, ptr }
%union.anon.3 = type { %struct.QTailQLink }
%union.anon.4 = type { %struct.QTailQLink }
%union.anon.5 = type { %struct.QTailQLink }
%struct.anon = type { ptr }
%struct.IOMMUNotifier = type { ptr, i32, i64, i64, i32, %struct.anon.6 }
%struct.anon.6 = type { ptr, ptr }
%struct.DMAMap = type <{ i64, i64, i64, i32 }>

@.str.25 = private unnamed_addr constant [27 x i8] c"Cannot locate expected map\00", align 1
@.str.26 = private unnamed_addr constant [28 x i8] c"Device cannot unmap: %s(%d)\00", align 1

; Function Attrs: nounwind sspstrong uwtable
define internal void @vhost_vdpa_cvq_unmap_buf(ptr noundef %v, ptr noundef %addr) #0 {
entry:
  %v.addr = alloca ptr, align 8
  %addr.addr = alloca ptr, align 8
  %tree = alloca ptr, align 8
  %needle = alloca %struct.DMAMap, align 1
  %map = alloca ptr, align 8
  %r = alloca i32, align 4
  %byval-temp = alloca %struct.DMAMap, align 8
  store ptr %v, ptr %v.addr, align 8
  store ptr %addr, ptr %addr.addr, align 8
  %0 = load ptr, ptr %v.addr, align 8
  %iova_tree = getelementptr inbounds %struct.vhost_vdpa, ptr %0, i32 0, i32 11
  %1 = load ptr, ptr %iova_tree, align 8
  store ptr %1, ptr %tree, align 8
  %iova = getelementptr inbounds %struct.DMAMap, ptr %needle, i32 0, i32 0
  store i64 0, ptr %iova, align 1
  %translated_addr = getelementptr inbounds %struct.DMAMap, ptr %needle, i32 0, i32 1
  %2 = load ptr, ptr %addr.addr, align 8
  %3 = ptrtoint ptr %2 to i64
  store i64 %3, ptr %translated_addr, align 1
  %size = getelementptr inbounds %struct.DMAMap, ptr %needle, i32 0, i32 2
  store i64 0, ptr %size, align 1
  %perm = getelementptr inbounds %struct.DMAMap, ptr %needle, i32 0, i32 3
  store i32 0, ptr %perm, align 1
  %4 = load ptr, ptr %tree, align 8
  %call = call ptr @vhost_iova_tree_find_iova(ptr noundef %4, ptr noundef %needle)
  store ptr %call, ptr %map, align 8
  %5 = load ptr, ptr %map, align 8
  %tobool = icmp ne ptr %5, null
  %lnot = xor i1 %tobool, true
  %lnot1 = xor i1 %lnot, true
  %lnot2 = xor i1 %lnot1, true
  %lnot.ext = zext i1 %lnot2 to i32
  %conv = sext i32 %lnot.ext to i64
  %tobool3 = icmp ne i64 %conv, 0
  br i1 %tobool3, label %if.then, label %if.end

if.then:                                          ; preds = %entry
  call void (ptr, ...) @error_report(ptr noundef @.str.25)
  br label %return

if.end:                                           ; preds = %entry
  %6 = load ptr, ptr %v.addr, align 8
  %7 = load ptr, ptr %v.addr, align 8
  %address_space_id = getelementptr inbounds %struct.vhost_vdpa, ptr %7, i32 0, i32 4
  %8 = load i32, ptr %address_space_id, align 16
  %9 = load ptr, ptr %map, align 8
  %iova4 = getelementptr inbounds %struct.DMAMap, ptr %9, i32 0, i32 0
  %10 = load i64, ptr %iova4, align 1
  %11 = load ptr, ptr %map, align 8
  %size5 = getelementptr inbounds %struct.DMAMap, ptr %11, i32 0, i32 2
  %12 = load i64, ptr %size5, align 1
  %add = add i64 %12, 1
  %call6 = call i32 @vhost_vdpa_dma_unmap(ptr noundef %6, i32 noundef %8, i64 noundef %10, i64 noundef %add)
  store i32 %call6, ptr %r, align 4
  %13 = load i32, ptr %r, align 4
  %cmp = icmp ne i32 %13, 0
  %lnot8 = xor i1 %cmp, true
  %lnot10 = xor i1 %lnot8, true
  %lnot.ext11 = zext i1 %lnot10 to i32
  %conv12 = sext i32 %lnot.ext11 to i64
  %tobool13 = icmp ne i64 %conv12, 0
  br i1 %tobool13, label %if.then14, label %if.end16

if.then14:                                        ; preds = %if.end
  %14 = load i32, ptr %r, align 4
  %call15 = call ptr @g_strerror(i32 noundef %14) #11
  %15 = load i32, ptr %r, align 4
  call void (ptr, ...) @error_report(ptr noundef @.str.26, ptr noundef %call15, i32 noundef %15)
  br label %if.end16

if.end16:                                         ; preds = %if.then14, %if.end
  %16 = load ptr, ptr %tree, align 8
  %17 = load ptr, ptr %map, align 8
  call void @llvm.memcpy.p0.p0.i64(ptr align 8 %byval-temp, ptr align 1 %17, i64 28, i1 false)
  call void @vhost_iova_tree_remove(ptr noundef %16, ptr noundef byval(%struct.DMAMap) align 8 %byval-temp)
  br label %return

return:                                           ; preds = %if.end16, %if.then
  ret void
}