; Function Attrs: nounwind sspstrong uwtable
define internal fastcc void @vhost_vdpa_cvq_unmap_buf(ptr noundef %v, ptr noundef %addr) unnamed_addr #0 {
entry:
  %needle = alloca %struct.DMAMap, align 8
  %byval-temp = alloca %struct.DMAMap, align 8
  %iova_tree = getelementptr inbounds nuw i8, ptr %v, i64 248
  %0 = load ptr, ptr %iova_tree, align 8
  store i64 0, ptr %needle, align 8
  %translated_addr = getelementptr inbounds nuw i8, ptr %needle, i64 8
  %1 = ptrtoint ptr %addr to i64
  store i64 %1, ptr %translated_addr, align 8
  %size = getelementptr inbounds nuw i8, ptr %needle, i64 16
  store i64 0, ptr %size, align 8
  %perm = getelementptr inbounds nuw i8, ptr %needle, i64 24
  store i32 0, ptr %perm, align 8
  %call = call ptr @vhost_iova_tree_find_iova(ptr noundef %0, ptr noundef nonnull %needle) #13
  %tobool.not = icmp eq ptr %call, null
  br i1 %tobool.not, label %if.then, label %if.end

if.then:                                          ; preds = %entry
  call void (ptr, ...) @error_report(ptr noundef nonnull @.str.25) #13
  br label %return

if.end:                                           ; preds = %entry
  %address_space_id = getelementptr inbounds nuw i8, ptr %v, i64 16
  %2 = load i32, ptr %address_space_id, align 16
  %3 = load i64, ptr %call, align 1
  %size5 = getelementptr inbounds nuw i8, ptr %call, i64 16
  %4 = load i64, ptr %size5, align 1
  %add = add i64 %4, 1
  %call6 = call i32 @vhost_vdpa_dma_unmap(ptr noundef nonnull %v, i32 noundef %2, i64 noundef %3, i64 noundef %add) #13
  %cmp.not = icmp eq i32 %call6, 0
  br i1 %cmp.not, label %if.end16, label %if.then14

if.then14:                                        ; preds = %if.end
  %call15 = call ptr @g_strerror(i32 noundef %call6) #14
  call void (ptr, ...) @error_report(ptr noundef nonnull @.str.26, ptr noundef %call15, i32 noundef %call6) #13
  br label %if.end16

if.end16:                                         ; preds = %if.then14, %if.end
  call void @llvm.memcpy.p0.p0.i64(ptr noundef nonnull align 8 dereferenceable(28) %byval-temp, ptr noundef nonnull align 1 dereferenceable(28) %call, i64 28, i1 false)
  call void @vhost_iova_tree_remove(ptr noundef %0, ptr noundef nonnull byval(%struct.DMAMap) align 8 %byval-temp) #13
  br label %return

return:                                           ; preds = %if.end16, %if.then
  ret void
}